; Function Attrs: mustprogress uwtable
define void @_ZN7rocksdb12ChargedCache7WaitAllEPNS_5Cache17AsyncLookupHandleEm(ptr noundef nonnull readonly align 8 captures(none) dereferenceable(112) %0, ptr noundef %1, i64 noundef %2) unnamed_addr #0 align 2 personality ptr @__gxx_personality_v0 {
  %4 = alloca %"class.rocksdb::Status", align 8
  %5 = getelementptr inbounds nuw i8, ptr %0, i64 80
  %6 = load ptr, ptr %5, align 8, !tbaa !4
  %7 = load ptr, ptr %6, align 8, !tbaa !16
  %8 = getelementptr inbounds nuw i8, ptr %7, i64 384
  %9 = load ptr, ptr %8, align 8
  tail call void %9(ptr noundef nonnull align 8 dereferenceable(80) %6, ptr noundef %1, i64 noundef %2)
  call void @llvm.lifetime.start.p0(i64 16, ptr nonnull %4) #21
  %10 = getelementptr inbounds nuw i8, ptr %0, i64 96
  %11 = load ptr, ptr %10, align 8, !tbaa !52
  %12 = load ptr, ptr %5, align 8, !tbaa !4
  %13 = load ptr, ptr %12, align 8, !tbaa !16
  %14 = getelementptr inbounds nuw i8, ptr %13, i64 248
  %15 = load ptr, ptr %14, align 8
  %16 = tail call noundef i64 %15(ptr noundef nonnull align 8 dereferenceable(80) %12)
  %17 = load ptr, ptr %11, align 8, !tbaa !16
  %18 = getelementptr inbounds nuw i8, ptr %17, i64 16
  %19 = load ptr, ptr %18, align 8
  call void %19(ptr dead_on_unwind nonnull writable sret(%"class.rocksdb::Status") align 8 %4, ptr noundef nonnull align 8 dereferenceable(80) %11, i64 noundef %16)
  %20 = getelementptr inbounds nuw i8, ptr %4, i64 8
  %21 = load ptr, ptr %20, align 8, !tbaa !54
  %.not.i.i = icmp eq ptr %21, null
  br i1 %.not.i.i, label %_ZN7rocksdb6StatusD2Ev.exit, label %_ZNKSt14default_deleteIA_KcEclIS0_EENSt9enable_ifIXsr14is_convertibleIPA_T_PS1_EE5valueEvE4typeEPS5_.exit.i.i

_ZNKSt14default_deleteIA_KcEclIS0_EENSt9enable_ifIXsr14is_convertibleIPA_T_PS1_EE5valueEvE4typeEPS5_.exit.i.i: ; preds = %3
  call void @_ZdaPv(ptr noundef nonnull %21) #23
  br label %_ZN7rocksdb6StatusD2Ev.exit

_ZN7rocksdb6StatusD2Ev.exit:                      ; preds = %3, %_ZNKSt14default_deleteIA_KcEclIS0_EENSt9enable_ifIXsr14is_convertibleIPA_T_PS1_EE5valueEvE4typeEPS5_.exit.i.i
  call void @llvm.lifetime.end.p0(i64 16, ptr nonnull %4) #21
  ret void
}